target datalayout = "e-m:e-p270:32:32-p271:32:32-p272:64:64-i64:64-i128:128-f80:128-n8:16:32:64-S128"
target triple = "x86_64-unknown-linux-gnu"

%struct.anon = type { ptr, ptr, ptr, %struct.QemuMutex, ptr, ptr }
%struct.QemuMutex = type { %union.pthread_mutex_t, i8 }
%union.pthread_mutex_t = type { %struct.__pthread_mutex_s }
%struct.__pthread_mutex_s = type { i32, i32, i32, i32, i32, i16, i16, %struct.__pthread_internal_list }
%struct.__pthread_internal_list = type { ptr, ptr }

@.str = private unnamed_addr constant [24 x i8] c"../qemu/migration/ram.c\00", align 1
@__func__.xbzrle_cache_resize = private unnamed_addr constant [20 x i8] c"xbzrle_cache_resize\00", align 1
@.str.1 = private unnamed_addr constant [26 x i8] c"Parameter '%s' expects %s\00", align 1
@.str.2 = private unnamed_addr constant [11 x i8] c"cache size\00", align 1
@.str.3 = private unnamed_addr constant [24 x i8] c"exceeding address space\00", align 1
@XBZRLE = internal global %struct.anon zeroinitializer, align 8
@qemu_mutex_lock_func = external global ptr, align 8
@__func__.XBZRLE_cache_lock = private unnamed_addr constant [18 x i8] c"XBZRLE_cache_lock\00", align 1

; Function Attrs: nounwind sspstrong uwtable
define internal void @XBZRLE_cache_unlock() #0 {
entry:
  %call = call zeroext i1 @migrate_xbzrle()
  br i1 %call, label %if.then, label %if.end

if.then:                                          ; preds = %entry
  %0 = getelementptr inbounds %struct.anon, ptr @XBZRLE, i32 0, i32 3
  call void @qemu_mutex_unlock_impl(ptr noundef %0, ptr noundef @.str, i32 noundef 145)
  br label %if.end

if.end:                                           ; preds = %if.then, %entry
  ret void
}

; Function Attrs: nounwind sspstrong uwtable
define internal void @XBZRLE_cache_lock() #0 {
entry:
  %_f = alloca ptr, align 8
  %tmp = alloca ptr, align 8
  %atomic-temp = alloca ptr, align 8
  %call = call zeroext i1 @migrate_xbzrle()
  br i1 %call, label %if.then, label %if.end

if.then:                                          ; preds = %entry
  br label %while.cond

while.cond:                                       ; preds = %do.end, %if.then
  br i1 false, label %while.body, label %while.end

while.body:                                       ; preds = %while.cond
  br label %do.body

do.body:                                          ; preds = %while.body
  call void @g_assertion_message_expr(ptr noundef null, ptr noundef @.str, i32 noundef 138, ptr noundef @__func__.XBZRLE_cache_lock, ptr noundef null) #12
  unreachable

do.end:                                           ; No predecessors!
  br label %while.cond

while.end:                                        ; preds = %while.cond
  %0 = load atomic i64, ptr @qemu_mutex_lock_func monotonic, align 8
  store i64 %0, ptr %atomic-temp, align 8
  %1 = load ptr, ptr %atomic-temp, align 8
  store ptr %1, ptr %tmp, align 8
  %2 = load ptr, ptr %tmp, align 8
  store ptr %2, ptr %_f, align 8
  %3 = load ptr, ptr %_f, align 8
  %4 = getelementptr inbounds %struct.anon, ptr @XBZRLE, i32 0, i32 3
  call void %3(ptr noundef %4, ptr noundef @.str, i32 noundef 138)
  br label %if.end

if.end:                                           ; preds = %while.end, %entry
  ret void
}

; Function Attrs: nounwind sspstrong uwtable
define dso_local i32 @xbzrle_cache_resize(i64 noundef %new_size, ptr noundef %errp) #0 {
entry:
  %retval = alloca i32, align 4
  %new_size.addr = alloca i64, align 8
  %errp.addr = alloca ptr, align 8
  %new_cache = alloca ptr, align 8
  %ret = alloca i64, align 8
  store i64 %new_size, ptr %new_size.addr, align 8
  store ptr %errp, ptr %errp.addr, align 8
  store i64 0, ptr %ret, align 8
  %0 = load i64, ptr %new_size.addr, align 8
  %1 = load i64, ptr %new_size.addr, align 8
  %cmp = icmp ne i64 %0, %1
  br i1 %cmp, label %if.then, label %if.end

if.then:                                          ; preds = %entry
  %2 = load ptr, ptr %errp.addr, align 8
  call void (ptr, ptr, i32, ptr, ptr, ...) @error_setg_internal(ptr noundef %2, ptr noundef @.str, i32 noundef 170, ptr noundef @__func__.xbzrle_cache_resize, ptr noundef @.str.1, ptr noundef @.str.2, ptr noundef @.str.3)
  store i32 -1, ptr %retval, align 4
  br label %return

if.end:                                           ; preds = %entry
  %3 = load i64, ptr %new_size.addr, align 8
  %call = call i64 @migrate_xbzrle_cache_size()
  %cmp1 = icmp eq i64 %3, %call
  br i1 %cmp1, label %if.then2, label %if.end3

if.then2:                                         ; preds = %if.end
  store i32 0, ptr %retval, align 4
  br label %return

if.end3:                                          ; preds = %if.end
  call void @XBZRLE_cache_lock()
  %4 = getelementptr inbounds %struct.anon, ptr @XBZRLE, i32 0, i32 2
  %5 = load ptr, ptr %4, align 8
  %cmp4 = icmp ne ptr %5, null
  br i1 %cmp4, label %if.then5, label %if.end9

if.then5:                                         ; preds = %if.end3
  %6 = load i64, ptr %new_size.addr, align 8
  %7 = load ptr, ptr %errp.addr, align 8
  %call6 = call ptr @cache_init(i64 noundef %6, i64 noundef 4096, ptr noundef %7)
  store ptr %call6, ptr %new_cache, align 8
  %8 = load ptr, ptr %new_cache, align 8
  %tobool = icmp ne ptr %8, null
  br i1 %tobool, label %if.end8, label %if.then7

if.then7:                                         ; preds = %if.then5
  store i64 -1, ptr %ret, align 8
  br label %out

if.end8:                                          ; preds = %if.then5
  %9 = getelementptr inbounds %struct.anon, ptr @XBZRLE, i32 0, i32 2
  %10 = load ptr, ptr %9, align 8
  call void @cache_fini(ptr noundef %10)
  %11 = load ptr, ptr %new_cache, align 8
  %12 = getelementptr inbounds %struct.anon, ptr @XBZRLE, i32 0, i32 2
  store ptr %11, ptr %12, align 8
  br label %if.end9

if.end9:                                          ; preds = %if.end8, %if.end3
  br label %out

out:                                              ; preds = %if.end9, %if.then7
  call void @XBZRLE_cache_unlock()
  %13 = load i64, ptr %ret, align 8
  %conv = trunc i64 %13 to i32
  store i32 %conv, ptr %retval, align 4
  br label %return

return:                                           ; preds = %out, %if.then2, %if.then
  %14 = load i32, ptr %retval, align 4
  ret i32 %14
}