; Function Attrs: nounwind sspstrong uwtable
define dso_local range(i32 -1, 1) i32 @xbzrle_cache_resize(i64 noundef %new_size, ptr noundef %errp) local_unnamed_addr #0 {
entry:
  %call = tail call i64 @migrate_xbzrle_cache_size() #18
  %cmp1 = icmp eq i64 %new_size, %call
  br i1 %cmp1, label %return, label %if.end3

if.end3:                                          ; preds = %entry
  %call.i = tail call zeroext i1 @migrate_xbzrle() #18
  br i1 %call.i, label %while.end.i, label %XBZRLE_cache_lock.exit

while.end.i:                                      ; preds = %if.end3
  %0 = load atomic i64, ptr @qemu_mutex_lock_func monotonic, align 8
  %1 = inttoptr i64 %0 to ptr
  tail call void %1(ptr noundef nonnull getelementptr inbounds nuw (i8, ptr @XBZRLE, i64 24), ptr noundef nonnull @.str, i32 noundef 138) #18
  br label %XBZRLE_cache_lock.exit

XBZRLE_cache_lock.exit:                           ; preds = %if.end3, %while.end.i
  %2 = load ptr, ptr getelementptr inbounds nuw (i8, ptr @XBZRLE, i64 16), align 8
  %cmp4.not = icmp eq ptr %2, null
  br i1 %cmp4.not, label %out, label %if.then5

if.then5:                                         ; preds = %XBZRLE_cache_lock.exit
  %call6 = tail call ptr @cache_init(i64 noundef %new_size, i64 noundef 4096, ptr noundef %errp) #18
  %tobool.not = icmp eq ptr %call6, null
  br i1 %tobool.not, label %out, label %if.end8

if.end8:                                          ; preds = %if.then5
  %3 = load ptr, ptr getelementptr inbounds nuw (i8, ptr @XBZRLE, i64 16), align 8
  tail call void @cache_fini(ptr noundef %3) #18
  store ptr %call6, ptr getelementptr inbounds nuw (i8, ptr @XBZRLE, i64 16), align 8
  br label %out

out:                                              ; preds = %if.then5, %XBZRLE_cache_lock.exit, %if.end8
  %ret.0 = phi i32 [ 0, %if.end8 ], [ 0, %XBZRLE_cache_lock.exit ], [ -1, %if.then5 ]
  %call.i6 = tail call zeroext i1 @migrate_xbzrle() #18
  br i1 %call.i6, label %if.then.i, label %return

if.then.i:                                        ; preds = %out
  tail call void @qemu_mutex_unlock_impl(ptr noundef nonnull getelementptr inbounds nuw (i8, ptr @XBZRLE, i64 24), ptr noundef nonnull @.str, i32 noundef 145) #18
  br label %return

return:                                           ; preds = %if.then.i, %out, %entry
  %retval.0 = phi i32 [ 0, %entry ], [ %ret.0, %out ], [ %ret.0, %if.then.i ]
  ret i32 %retval.0
}